target datalayout = "e-m:e-p270:32:32-p271:32:32-p272:64:64-i64:64-i128:128-f80:128-n8:16:32:64-S128"
target triple = "x86_64-pc-linux-gnu"

%struct.stbtt_fontinfo = type { ptr, ptr, i32, i32, i32, i32, i32, i32, i32, i32, i32, i32 }

; Function Attrs: mustprogress nounwind uwtable
define internal noundef signext i16 @_ZL7ttSHORTPKh(ptr noundef %0) #1 {
  %2 = alloca ptr, align 8
  store ptr %0, ptr %2, align 8
  %3 = load ptr, ptr %2, align 8
  %4 = getelementptr inbounds i8, ptr %3, i64 0
  %5 = load i8, ptr %4, align 1
  %6 = zext i8 %5 to i32
  %7 = mul nsw i32 %6, 256
  %8 = load ptr, ptr %2, align 8
  %9 = getelementptr inbounds i8, ptr %8, i64 1
  %10 = load i8, ptr %9, align 1
  %11 = zext i8 %10 to i32
  %12 = add nsw i32 %7, %11
  %13 = trunc i32 %12 to i16
  ret i16 %13
}

; Function Attrs: mustprogress nounwind uwtable
define internal noundef i32 @_ZL7ttULONGPKh(ptr noundef %0) #1 {
  %2 = alloca ptr, align 8
  store ptr %0, ptr %2, align 8
  %3 = load ptr, ptr %2, align 8
  %4 = getelementptr inbounds i8, ptr %3, i64 0
  %5 = load i8, ptr %4, align 1
  %6 = zext i8 %5 to i32
  %7 = shl i32 %6, 24
  %8 = load ptr, ptr %2, align 8
  %9 = getelementptr inbounds i8, ptr %8, i64 1
  %10 = load i8, ptr %9, align 1
  %11 = zext i8 %10 to i32
  %12 = shl i32 %11, 16
  %13 = add nsw i32 %7, %12
  %14 = load ptr, ptr %2, align 8
  %15 = getelementptr inbounds i8, ptr %14, i64 2
  %16 = load i8, ptr %15, align 1
  %17 = zext i8 %16 to i32
  %18 = shl i32 %17, 8
  %19 = add nsw i32 %13, %18
  %20 = load ptr, ptr %2, align 8
  %21 = getelementptr inbounds i8, ptr %20, i64 3
  %22 = load i8, ptr %21, align 1
  %23 = zext i8 %22 to i32
  %24 = add nsw i32 %19, %23
  ret i32 %24
}

; Function Attrs: mustprogress nounwind uwtable
define internal noundef zeroext i16 @_ZL8ttUSHORTPKh(ptr noundef %0) #1 {
  %2 = alloca ptr, align 8
  store ptr %0, ptr %2, align 8
  %3 = load ptr, ptr %2, align 8
  %4 = getelementptr inbounds i8, ptr %3, i64 0
  %5 = load i8, ptr %4, align 1
  %6 = zext i8 %5 to i32
  %7 = mul nsw i32 %6, 256
  %8 = load ptr, ptr %2, align 8
  %9 = getelementptr inbounds i8, ptr %8, i64 1
  %10 = load i8, ptr %9, align 1
  %11 = zext i8 %10 to i32
  %12 = add nsw i32 %7, %11
  %13 = trunc i32 %12 to i16
  ret i16 %13
}

; Function Attrs: mustprogress uwtable
define dso_local i32 @stbtt_GetGlyphKernAdvance(ptr noundef %0, i32 noundef %1, i32 noundef %2) #0 {
  %4 = alloca i32, align 4
  %5 = alloca ptr, align 8
  %6 = alloca i32, align 4
  %7 = alloca i32, align 4
  %8 = alloca ptr, align 8
  %9 = alloca i32, align 4
  %10 = alloca i32, align 4
  %11 = alloca i32, align 4
  %12 = alloca i32, align 4
  %13 = alloca i32, align 4
  store ptr %0, ptr %5, align 8
  store i32 %1, ptr %6, align 4
  store i32 %2, ptr %7, align 4
  %14 = load ptr, ptr %5, align 8
  %15 = getelementptr inbounds %struct.stbtt_fontinfo, ptr %14, i32 0, i32 1
  %16 = load ptr, ptr %15, align 8
  %17 = load ptr, ptr %5, align 8
  %18 = getelementptr inbounds %struct.stbtt_fontinfo, ptr %17, i32 0, i32 9
  %19 = load i32, ptr %18, align 4
  %20 = sext i32 %19 to i64
  %21 = getelementptr inbounds i8, ptr %16, i64 %20
  store ptr %21, ptr %8, align 8
  %22 = load ptr, ptr %5, align 8
  %23 = getelementptr inbounds %struct.stbtt_fontinfo, ptr %22, i32 0, i32 9
  %24 = load i32, ptr %23, align 4
  %25 = icmp ne i32 %24, 0
  br i1 %25, label %27, label %26

26:                                               ; preds = %3
  store i32 0, ptr %4, align 4
  br label %92

27:                                               ; preds = %3
  %28 = load ptr, ptr %8, align 8
  %29 = getelementptr inbounds i8, ptr %28, i64 2
  %30 = call noundef zeroext i16 @_ZL8ttUSHORTPKh(ptr noundef %29)
  %31 = zext i16 %30 to i32
  %32 = icmp slt i32 %31, 1
  br i1 %32, label %33, label %34

33:                                               ; preds = %27
  store i32 0, ptr %4, align 4
  br label %92

34:                                               ; preds = %27
  %35 = load ptr, ptr %8, align 8
  %36 = getelementptr inbounds i8, ptr %35, i64 8
  %37 = call noundef zeroext i16 @_ZL8ttUSHORTPKh(ptr noundef %36)
  %38 = zext i16 %37 to i32
  %39 = icmp ne i32 %38, 1
  br i1 %39, label %40, label %41

40:                                               ; preds = %34
  store i32 0, ptr %4, align 4
  br label %92

41:                                               ; preds = %34
  store i32 0, ptr %11, align 4
  %42 = load ptr, ptr %8, align 8
  %43 = getelementptr inbounds i8, ptr %42, i64 10
  %44 = call noundef zeroext i16 @_ZL8ttUSHORTPKh(ptr noundef %43)
  %45 = zext i16 %44 to i32
  %46 = sub nsw i32 %45, 1
  store i32 %46, ptr %12, align 4
  %47 = load i32, ptr %6, align 4
  %48 = shl i32 %47, 16
  %49 = load i32, ptr %7, align 4
  %50 = or i32 %48, %49
  store i32 %50, ptr %9, align 4
  br label %51

51:                                               ; preds = %90, %41
  %52 = load i32, ptr %11, align 4
  %53 = load i32, ptr %12, align 4
  %54 = icmp sle i32 %52, %53
  br i1 %54, label %55, label %91

55:                                               ; preds = %51
  %56 = load i32, ptr %11, align 4
  %57 = load i32, ptr %12, align 4
  %58 = add nsw i32 %56, %57
  %59 = ashr i32 %58, 1
  store i32 %59, ptr %13, align 4
  %60 = load ptr, ptr %8, align 8
  %61 = getelementptr inbounds i8, ptr %60, i64 18
  %62 = load i32, ptr %13, align 4
  %63 = mul nsw i32 %62, 6
  %64 = sext i32 %63 to i64
  %65 = getelementptr inbounds i8, ptr %61, i64 %64
  %66 = call noundef i32 @_ZL7ttULONGPKh(ptr noundef %65)
  store i32 %66, ptr %10, align 4
  %67 = load i32, ptr %9, align 4
  %68 = load i32, ptr %10, align 4
  %69 = icmp ult i32 %67, %68
  br i1 %69, label %70, label %73

70:                                               ; preds = %55
  %71 = load i32, ptr %13, align 4
  %72 = sub nsw i32 %71, 1
  store i32 %72, ptr %12, align 4
  br label %90

73:                                               ; preds = %55
  %74 = load i32, ptr %9, align 4
  %75 = load i32, ptr %10, align 4
  %76 = icmp ugt i32 %74, %75
  br i1 %76, label %77, label %80

77:                                               ; preds = %73
  %78 = load i32, ptr %13, align 4
  %79 = add nsw i32 %78, 1
  store i32 %79, ptr %11, align 4
  br label %89

80:                                               ; preds = %73
  %81 = load ptr, ptr %8, align 8
  %82 = getelementptr inbounds i8, ptr %81, i64 22
  %83 = load i32, ptr %13, align 4
  %84 = mul nsw i32 %83, 6
  %85 = sext i32 %84 to i64
  %86 = getelementptr inbounds i8, ptr %82, i64 %85
  %87 = call noundef signext i16 @_ZL7ttSHORTPKh(ptr noundef %86)
  %88 = sext i16 %87 to i32
  store i32 %88, ptr %4, align 4
  br label %92

89:                                               ; preds = %77
  br label %90

90:                                               ; preds = %89, %70
  br label %51, !llvm.loop !16

91:                                               ; preds = %51
  store i32 0, ptr %4, align 4
  br label %92

92:                                               ; preds = %91, %80, %40, %33, %26
  %93 = load i32, ptr %4, align 4
  ret i32 %93
}