; Function Attrs: mustprogress nofree norecurse nosync nounwind willreturn memory(read, inaccessiblemem: none) uwtable
define dso_local range(i32 -32768, 32768) i32 @stbtt_GetGlyphKernAdvance(ptr noundef readonly captures(none) %0, i32 noundef %1, i32 noundef %2) local_unnamed_addr #2 {
  %4 = getelementptr inbounds nuw i8, ptr %0, i64 8
  %5 = load ptr, ptr %4, align 8
  %6 = getelementptr inbounds nuw i8, ptr %0, i64 44
  %7 = load i32, ptr %6, align 4
  %8 = sext i32 %7 to i64
  %9 = getelementptr inbounds i8, ptr %5, i64 %8
  %.not = icmp eq i32 %7, 0
  br i1 %.not, label %.loopexit, label %10

10:                                               ; preds = %3
  %11 = getelementptr inbounds nuw i8, ptr %9, i64 2
  %.val32 = load i8, ptr %11, align 1
  %12 = getelementptr i8, ptr %9, i64 3
  %.val33 = load i8, ptr %12, align 1
  %13 = zext i8 %.val32 to i16
  %14 = shl nuw i16 %13, 8
  %15 = zext i8 %.val33 to i16
  %16 = or disjoint i16 %14, %15
  %17 = icmp eq i16 %16, 0
  br i1 %17, label %.loopexit, label %18

18:                                               ; preds = %10
  %19 = getelementptr inbounds nuw i8, ptr %9, i64 8
  %.val30 = load i8, ptr %19, align 1
  %20 = getelementptr i8, ptr %9, i64 9
  %.val31 = load i8, ptr %20, align 1
  %21 = zext i8 %.val30 to i16
  %22 = shl nuw i16 %21, 8
  %23 = zext i8 %.val31 to i16
  %24 = or disjoint i16 %22, %23
  %.not27 = icmp eq i16 %24, 1
  br i1 %.not27, label %25, label %.loopexit

25:                                               ; preds = %18
  %26 = getelementptr inbounds nuw i8, ptr %9, i64 10
  %.val = load i8, ptr %26, align 1
  %27 = getelementptr i8, ptr %9, i64 11
  %.val29 = load i8, ptr %27, align 1
  %28 = zext i8 %.val to i32
  %29 = shl nuw nsw i32 %28, 8
  %30 = zext i8 %.val29 to i32
  %31 = or disjoint i32 %29, %30
  %32 = shl i32 %1, 16
  %33 = or i32 %32, %2
  %.not2836 = icmp eq i32 %31, 0
  br i1 %.not2836, label %.loopexit, label %.lr.ph

.lr.ph:                                           ; preds = %25
  %34 = add nsw i32 %31, -1
  %35 = getelementptr inbounds nuw i8, ptr %9, i64 18
  br label %36

36:                                               ; preds = %.lr.ph, %75
  %.02238 = phi i32 [ %34, %.lr.ph ], [ %.1, %75 ]
  %.02337 = phi i32 [ 0, %.lr.ph ], [ %.124, %75 ]
  %37 = add nsw i32 %.02238, %.02337
  %38 = ashr i32 %37, 1
  %39 = mul nsw i32 %38, 6
  %40 = sext i32 %39 to i64
  %41 = getelementptr inbounds i8, ptr %35, i64 %40
  %42 = load i8, ptr %41, align 1
  %43 = zext i8 %42 to i32
  %44 = shl nuw i32 %43, 24
  %45 = getelementptr inbounds nuw i8, ptr %41, i64 1
  %46 = load i8, ptr %45, align 1
  %47 = zext i8 %46 to i32
  %48 = shl nuw nsw i32 %47, 16
  %49 = or disjoint i32 %48, %44
  %50 = getelementptr inbounds nuw i8, ptr %41, i64 2
  %51 = load i8, ptr %50, align 1
  %52 = zext i8 %51 to i32
  %53 = shl nuw nsw i32 %52, 8
  %54 = or disjoint i32 %49, %53
  %55 = getelementptr inbounds nuw i8, ptr %41, i64 3
  %56 = load i8, ptr %55, align 1
  %57 = zext i8 %56 to i32
  %58 = or disjoint i32 %54, %57
  %59 = icmp ult i32 %33, %58
  br i1 %59, label %60, label %62

60:                                               ; preds = %36
  %61 = add nsw i32 %38, -1
  br label %75

62:                                               ; preds = %36
  %63 = icmp ugt i32 %33, %58
  br i1 %63, label %64, label %66

64:                                               ; preds = %62
  %65 = add nsw i32 %38, 1
  br label %75

66:                                               ; preds = %62
  %67 = getelementptr inbounds nuw i8, ptr %9, i64 22
  %68 = getelementptr inbounds i8, ptr %67, i64 %40
  %.val34 = load i8, ptr %68, align 1
  %69 = getelementptr i8, ptr %68, i64 1
  %.val35 = load i8, ptr %69, align 1
  %70 = zext i8 %.val34 to i16
  %71 = shl nuw i16 %70, 8
  %72 = zext i8 %.val35 to i16
  %73 = or disjoint i16 %71, %72
  %74 = sext i16 %73 to i32
  br label %.loopexit

75:                                               ; preds = %64, %60
  %.124 = phi i32 [ %.02337, %60 ], [ %65, %64 ]
  %.1 = phi i32 [ %61, %60 ], [ %.02238, %64 ]
  %.not28 = icmp sgt i32 %.124, %.1
  br i1 %.not28, label %.loopexit, label %36, !llvm.loop !16

.loopexit:                                        ; preds = %75, %25, %18, %10, %3, %66
  %.0 = phi i32 [ %74, %66 ], [ 0, %3 ], [ 0, %10 ], [ 0, %18 ], [ 0, %25 ], [ 0, %75 ]
  ret i32 %.0
}